; Function Attrs: mustprogress nounwind uwtable
define hidden void @_ZN14CompileWrapperC2EP7Compile(ptr nocapture noundef nonnull align 8 dereferenceable(8) %0, ptr noundef %1) unnamed_addr #0 align 2 {
  store ptr %1, ptr %0, align 8
  %3 = getelementptr inbounds i8, ptr %1, i64 352
  %4 = load ptr, ptr %3, align 8
  %5 = getelementptr inbounds i8, ptr %4, i64 128
  store ptr %1, ptr %5, align 8
  %6 = getelementptr inbounds i8, ptr %1, i64 856
  store ptr null, ptr %6, align 8
  %7 = tail call noundef ptr @_Z23resource_allocate_bytesmN17AllocFailStrategy13AllocFailEnumE(i64 noundef 40, i32 noundef 0) #17
  %8 = load ptr, ptr %0, align 8
  %9 = getelementptr inbounds i8, ptr %8, i64 296
  tail call void @_ZN4DictC1EPFiPKvS1_EPFiS1_EP5Arenai(ptr noundef nonnull align 8 dereferenceable(40) %7, ptr noundef nonnull @_Z6cmpkeyPKvS0_, ptr noundef nonnull @_Z7hashkeyPKv, ptr noundef nonnull %9, i32 noundef 16) #17
  %10 = getelementptr inbounds i8, ptr %1, i64 872
  store ptr %7, ptr %10, align 8
  %11 = getelementptr inbounds i8, ptr %1, i64 880
  store i32 0, ptr %11, align 8
  %12 = getelementptr inbounds i8, ptr %1, i64 888
  %13 = getelementptr inbounds i8, ptr %1, i64 2264
  %14 = getelementptr inbounds i8, ptr %1, i64 800
  %15 = getelementptr inbounds i8, ptr %1, i64 848
  tail call void @llvm.memset.p0.i64(ptr noundef nonnull align 8 dereferenceable(24) %12, i8 0, i64 24, i1 false)
  tail call void @llvm.memset.p0.i64(ptr noundef nonnull align 8 dereferenceable(16) %13, i8 0, i64 16, i1 false)
  store ptr %14, ptr %15, align 8
  tail call void @_ZN4Type10InitializeEP7Compile(ptr noundef nonnull %1) #17
  %16 = load ptr, ptr %0, align 8
  %17 = getelementptr inbounds i8, ptr %16, i64 8
  %18 = load ptr, ptr %17, align 8
  %19 = getelementptr inbounds i8, ptr %18, i64 2296
  %20 = tail call { i64, i64 } @_ZN29CompositeElapsedCounterSource3nowEv() #17
  %21 = extractvalue { i64, i64 } %20, 0
  %22 = extractvalue { i64, i64 } %20, 1
  store i64 %21, ptr %19, align 8
  %.sroa.2.0..sroa_idx.i.i = getelementptr inbounds i8, ptr %18, i64 2304
  store i64 %22, ptr %.sroa.2.0..sroa_idx.i.i, align 8
  %23 = load ptr, ptr %0, align 8
  %24 = getelementptr inbounds i8, ptr %23, i64 32
  %25 = load ptr, ptr %24, align 8
  %.not = icmp eq ptr %25, null
  br i1 %.not, label %32, label %26

26:                                               ; preds = %2
  %27 = getelementptr inbounds i8, ptr %23, i64 360
  %28 = load ptr, ptr %27, align 8
  %29 = getelementptr inbounds i8, ptr %28, i64 269
  %30 = load i8, ptr %29, align 1
  %31 = and i8 %30, 1
  br label %32

32:                                               ; preds = %26, %2
  %33 = phi i8 [ 0, %2 ], [ %31, %26 ]
  %34 = getelementptr inbounds i8, ptr %23, i64 864
  store i8 %33, ptr %34, align 8
  ret void
}